target datalayout = "e-m:e-p270:32:32-p271:32:32-p272:64:64-i64:64-i128:128-f80:128-n8:16:32:64-S128"
target triple = "x86_64-pc-linux-gnu"

%"class.clang::comments::Sema" = type { ptr, ptr, ptr, ptr, ptr, ptr, %"class.llvm::StringMap", ptr, ptr, %"class.llvm::SmallVector" }
%"class.llvm::StringMap" = type { %"class.llvm::StringMapImpl" }
%"class.llvm::StringMapImpl" = type { ptr, i32, i32, i32, i32 }
%"class.llvm::SmallVector" = type { %"class.llvm::SmallVectorImpl", %"struct.llvm::SmallVectorStorage" }
%"class.llvm::SmallVectorImpl" = type { %"class.llvm::SmallVectorTemplateBase" }
%"class.llvm::SmallVectorTemplateBase" = type { %"class.llvm::SmallVectorTemplateCommon" }
%"class.llvm::SmallVectorTemplateCommon" = type { %"class.llvm::SmallVectorBase" }
%"class.llvm::SmallVectorBase" = type { ptr, i32, i32 }
%"struct.llvm::SmallVectorStorage" = type { [64 x i8] }
%"struct.clang::comments::DeclInfo" = type <{ ptr, ptr, %"class.llvm::ArrayRef", %"class.clang::QualType", ptr, i16, [6 x i8] }>
%"class.llvm::ArrayRef" = type { ptr, i64 }
%"class.clang::QualType" = type { %"class.llvm::PointerIntPair.118" }
%"class.llvm::PointerIntPair.118" = type { %"struct.llvm::detail::PunnedPointer.119" }
%"struct.llvm::detail::PunnedPointer.119" = type { [8 x i8] }

; Function Attrs: mustprogress nounwind uwtable
define dso_local void @_ZN5clang8comments4Sema15inspectThisDeclEv(ptr noundef nonnull align 8 dereferenceable(168) %0) #0 align 2 {
  %2 = alloca ptr, align 8
  store ptr %0, ptr %2, align 8
  %3 = load ptr, ptr %2, align 8
  %4 = getelementptr inbounds nuw %"class.clang::comments::Sema", ptr %3, i32 0, i32 5
  %5 = load ptr, ptr %4, align 8
  call void @_ZN5clang8comments8DeclInfo4fillEv(ptr noundef nonnull align 8 dereferenceable(50) %5)
  ret void
}

; Function Attrs: mustprogress nounwind uwtable
define dso_local { ptr, i64 } @_ZN5clang8comments4Sema12getParamVarsEv(ptr noundef nonnull align 8 dereferenceable(168) %0) #0 align 2 {
  %2 = alloca %"class.llvm::ArrayRef", align 8
  %3 = alloca ptr, align 8
  store ptr %0, ptr %3, align 8
  %4 = load ptr, ptr %3, align 8
  %5 = getelementptr inbounds nuw %"class.clang::comments::Sema", ptr %4, i32 0, i32 5
  %6 = load ptr, ptr %5, align 8
  %7 = getelementptr inbounds nuw %"struct.clang::comments::DeclInfo", ptr %6, i32 0, i32 5
  %8 = load i16, ptr %7, align 8
  %9 = and i16 %8, 1
  %10 = zext i16 %9 to i32
  %11 = icmp ne i32 %10, 0
  br i1 %11, label %13, label %12

12:                                               ; preds = %1
  call void @_ZN5clang8comments4Sema15inspectThisDeclEv(ptr noundef nonnull align 8 dereferenceable(168) %4)
  br label %13

13:                                               ; preds = %12, %1
  %14 = getelementptr inbounds nuw %"class.clang::comments::Sema", ptr %4, i32 0, i32 5
  %15 = load ptr, ptr %14, align 8
  %16 = getelementptr inbounds nuw %"struct.clang::comments::DeclInfo", ptr %15, i32 0, i32 2
  call void @llvm.memcpy.p0.p0.i64(ptr align 8 %2, ptr align 8 %16, i64 16, i1 false)
  %17 = load { ptr, i64 }, ptr %2, align 8
  ret { ptr, i64 } %17
}