; Function Attrs: mustprogress nounwind uwtable
define dso_local { ptr, i64 } @_ZN5clang8comments4Sema12getParamVarsEv(ptr nocapture noundef nonnull readonly align 8 dereferenceable(168) %0) local_unnamed_addr #0 align 2 {
  %2 = getelementptr inbounds nuw i8, ptr %0, i64 40
  %3 = load ptr, ptr %2, align 8
  %4 = getelementptr inbounds nuw i8, ptr %3, i64 48
  %5 = load i16, ptr %4, align 8
  %6 = and i16 %5, 1
  %.not = icmp eq i16 %6, 0
  br i1 %.not, label %7, label %8

7:                                                ; preds = %1
  tail call void @_ZN5clang8comments8DeclInfo4fillEv(ptr noundef nonnull align 8 dereferenceable(50) %3) #17
  %.pre = load ptr, ptr %2, align 8
  br label %8

8:                                                ; preds = %7, %1
  %9 = phi ptr [ %.pre, %7 ], [ %3, %1 ]
  %10 = getelementptr inbounds nuw i8, ptr %9, i64 16
  %.sroa.0.0.copyload = load ptr, ptr %10, align 8
  %.sroa.2.0..sroa_idx = getelementptr inbounds i8, ptr %9, i64 24
  %.sroa.2.0.copyload = load i64, ptr %.sroa.2.0..sroa_idx, align 8
  %.fca.0.insert = insertvalue { ptr, i64 } poison, ptr %.sroa.0.0.copyload, 0
  %.fca.1.insert = insertvalue { ptr, i64 } %.fca.0.insert, i64 %.sroa.2.0.copyload, 1
  ret { ptr, i64 } %.fca.1.insert
}